; Function Attrs: mustprogress nounwind uwtable
define hidden noundef ptr @_ZN20RangeCheckEliminator5Bound4copyEv(ptr nocapture noundef nonnull readonly align 8 dereferenceable(32) %0) local_unnamed_addr #0 align 2 {
  %2 = tail call align 8 ptr @llvm.threadlocal.address.p0(ptr align 8 @_ZN6Thread12_thr_currentE)
  %3 = load ptr, ptr %2, align 8
  %4 = getelementptr inbounds i8, ptr %3, i64 1808
  %5 = load ptr, ptr %4, align 8
  %6 = getelementptr inbounds i8, ptr %5, i64 128
  %7 = load ptr, ptr %6, align 8
  %8 = load ptr, ptr %7, align 8
  %9 = getelementptr inbounds i8, ptr %8, i64 40
  %10 = load ptr, ptr %9, align 8
  %11 = getelementptr inbounds i8, ptr %8, i64 32
  %12 = load ptr, ptr %11, align 8
  %13 = ptrtoint ptr %10 to i64
  %14 = ptrtoint ptr %12 to i64
  %15 = sub i64 %13, %14
  %.not.i.i.i = icmp ult i64 %15, 32
  br i1 %.not.i.i.i, label %18, label %16

16:                                               ; preds = %1
  %17 = getelementptr inbounds i8, ptr %12, i64 32
  store ptr %17, ptr %11, align 8
  br label %_ZN22CompilationResourceObjnwEm.exit

18:                                               ; preds = %1
  %19 = tail call noundef ptr @_ZN5Arena4growEmN17AllocFailStrategy13AllocFailEnumE(ptr noundef nonnull align 8 dereferenceable(48) %8, i64 noundef 32, i32 noundef 0) #13
  br label %_ZN22CompilationResourceObjnwEm.exit

_ZN22CompilationResourceObjnwEm.exit:             ; preds = %16, %18
  %.0.i.i.i = phi ptr [ %12, %16 ], [ %19, %18 ]
  %20 = icmp ne ptr %.0.i.i.i, null
  tail call void @llvm.assume(i1 %20)
  %21 = getelementptr inbounds i8, ptr %.0.i.i.i, i64 16
  store i32 -2147483648, ptr %21, align 8
  store i32 2147483647, ptr %.0.i.i.i, align 8
  %22 = getelementptr inbounds i8, ptr %.0.i.i.i, i64 24
  store ptr null, ptr %22, align 8
  %23 = getelementptr inbounds i8, ptr %.0.i.i.i, i64 8
  store ptr null, ptr %23, align 8
  %24 = getelementptr inbounds i8, ptr %0, i64 16
  %25 = load i32, ptr %24, align 8
  store i32 %25, ptr %21, align 8
  %26 = getelementptr inbounds i8, ptr %0, i64 24
  %27 = load ptr, ptr %26, align 8
  store ptr %27, ptr %22, align 8
  %28 = load i32, ptr %0, align 8
  store i32 %28, ptr %.0.i.i.i, align 8
  %29 = getelementptr inbounds i8, ptr %0, i64 8
  %30 = load ptr, ptr %29, align 8
  store ptr %30, ptr %23, align 8
  ret ptr %.0.i.i.i
}